; Function Attrs: nounwind uwtable
define noundef ptr @l___private_Init_Data_Vector_Attach_0__Vector_attachWithImpl___rarg(ptr noundef returned %0, ptr noundef readnone captures(none) %1, ptr noundef readnone captures(none) %2) local_unnamed_addr #0 {
  %4 = ptrtoint ptr %0 to i64
  %5 = and i64 %4, 1
  %.not = icmp eq i64 %5, 0
  br i1 %.not, label %6, label %lean_inc.exit

6:                                                ; preds = %3
  %.val.i = load i32, ptr %0, align 4, !tbaa !4
  %7 = icmp sgt i32 %.val.i, 0
  br i1 %7, label %8, label %10, !prof !9

8:                                                ; preds = %6
  %9 = add nuw i32 %.val.i, 1
  store i32 %9, ptr %0, align 4, !tbaa !4
  br label %lean_inc.exit

10:                                               ; preds = %6
  %.not.i = icmp eq i32 %.val.i, 0
  br i1 %.not.i, label %lean_inc.exit, label %11

11:                                               ; preds = %10
  tail call void @lean_inc_ref_cold(ptr noundef nonnull %0) #3
  br label %lean_inc.exit

lean_inc.exit:                                    ; preds = %11, %10, %8, %3
  ret ptr %0
}